target datalayout = "e-m:e-p270:32:32-p271:32:32-p272:64:64-i64:64-i128:128-f80:128-n8:16:32:64-S128"
target triple = "x86_64-pc-linux-gnu"

%struct._reo_man = type { i32, i32, i32, i32, i32, i32, ptr, ptr, i32, ptr, i32, i32, ptr, ptr, ptr, ptr, i32, i32, i32, i32, i32, i32, double, double, double, ptr, ptr, ptr, ptr, i32, ptr, i32, i32, ptr, i32, i32, i32, ptr, i32, i32, ptr, ptr, i32, i32, i32, i32, i32, i32, i32 }

@.str.2 = private unnamed_addr constant [37 x i8] c"APL: Total = %8.2f. Average =%6.2f.\0A\00", align 1

; Function Attrs: nounwind uwtable
define void @reoProfileAplPrint(ptr noundef %0) #0 {
  %2 = alloca ptr, align 8
  store ptr %0, ptr %2, align 8, !tbaa !3
  %3 = load ptr, ptr %2, align 8, !tbaa !3
  %4 = getelementptr inbounds nuw %struct._reo_man, ptr %3, i32 0, i32 22
  %5 = load double, ptr %4, align 8, !tbaa !45
  %6 = load ptr, ptr %2, align 8, !tbaa !3
  %7 = getelementptr inbounds nuw %struct._reo_man, ptr %6, i32 0, i32 22
  %8 = load double, ptr %7, align 8, !tbaa !45
  %9 = load ptr, ptr %2, align 8, !tbaa !3
  %10 = getelementptr inbounds nuw %struct._reo_man, ptr %9, i32 0, i32 11
  %11 = load i32, ptr %10, align 4, !tbaa !10
  %12 = sitofp i32 %11 to float
  %13 = fpext float %12 to double
  %14 = fdiv double %8, %13
  %15 = call i32 (ptr, ...) @printf(ptr noundef @.str.2, double noundef %5, double noundef %14)
  ret void
}