; Function Attrs: nofree nounwind uwtable
define void @reoProfileAplPrint(ptr noundef readonly captures(none) %0) local_unnamed_addr #5 {
  %2 = getelementptr inbounds nuw i8, ptr %0, i64 120
  %3 = load double, ptr %2, align 8, !tbaa !39
  %4 = getelementptr inbounds nuw i8, ptr %0, i64 60
  %5 = load i32, ptr %4, align 4, !tbaa !3
  %6 = sitofp i32 %5 to float
  %7 = fpext float %6 to double
  %8 = fdiv double %3, %7
  %9 = tail call i32 (ptr, ...) @printf(ptr noundef nonnull dereferenceable(1) @.str.2, double noundef %3, double noundef %8)
  ret void
}